target datalayout = "e-m:e-p270:32:32-p271:32:32-p272:64:64-i64:64-i128:128-f80:128-n8:16:32:64-S128"
target triple = "x86_64-pc-linux-gnu"

%"class.cv::BRISK_Impl" = type { %"class.cv::BRISK", i32, i32, float, ptr, i32, ptr, ptr, i32, float, float, ptr, ptr, i32, i32 }
%"class.cv::BRISK" = type { %"class.cv::Feature2D" }
%"class.cv::Feature2D" = type { %"class.cv::Algorithm" }
%"class.cv::Algorithm" = type { ptr }
%"class.cv::FileNode" = type { ptr, i64, i64 }

@.str = private unnamed_addr constant [10 x i8] c"threshold\00", align 1
@.str.1 = private unnamed_addr constant [8 x i8] c"octaves\00", align 1
@.str.2 = private unnamed_addr constant [13 x i8] c"patternScale\00", align 1

; Function Attrs: mustprogress uwtable
define internal void @_ZN2cvrsIfEEvRKNS_8FileNodeERT_(ptr noundef nonnull align 8 dereferenceable(24) %0, ptr noundef nonnull align 4 dereferenceable(4) %1) #0 {
  %3 = alloca ptr, align 8
  %4 = alloca ptr, align 8
  store ptr %0, ptr %3, align 8
  store ptr %1, ptr %4, align 8
  %5 = load ptr, ptr %3, align 8
  %6 = load ptr, ptr %4, align 8
  call void @_ZN2cv4readERKNS_8FileNodeERff(ptr noundef nonnull align 8 dereferenceable(24) %5, ptr noundef nonnull align 4 dereferenceable(4) %6, float noundef 0.000000e+00)
  ret void
}

; Function Attrs: mustprogress uwtable
define internal void @_ZN2cvrsIiEEvRKNS_8FileNodeERT_(ptr noundef nonnull align 8 dereferenceable(24) %0, ptr noundef nonnull align 4 dereferenceable(4) %1) #0 {
  %3 = alloca ptr, align 8
  %4 = alloca ptr, align 8
  store ptr %0, ptr %3, align 8
  store ptr %1, ptr %4, align 8
  %5 = load ptr, ptr %3, align 8
  %6 = load ptr, ptr %4, align 8
  call void @_ZN2cv4readERKNS_8FileNodeERii(ptr noundef nonnull align 8 dereferenceable(24) %5, ptr noundef nonnull align 4 dereferenceable(4) %6, i32 noundef 0)
  ret void
}

; Function Attrs: mustprogress uwtable
define hidden void @_ZN2cv10BRISK_Impl4readERKNS_8FileNodeE(ptr noundef nonnull align 8 dereferenceable(96) %0, ptr noundef nonnull align 8 dereferenceable(24) %1) unnamed_addr #0 align 2 {
  %3 = alloca ptr, align 8
  %4 = alloca ptr, align 8
  %5 = alloca %"class.cv::FileNode", align 8
  %6 = alloca %"class.cv::FileNode", align 8
  %7 = alloca %"class.cv::FileNode", align 8
  %8 = alloca %"class.cv::FileNode", align 8
  %9 = alloca %"class.cv::FileNode", align 8
  %10 = alloca float, align 4
  %11 = alloca %"class.cv::FileNode", align 8
  store ptr %0, ptr %3, align 8
  store ptr %1, ptr %4, align 8
  %12 = load ptr, ptr %3, align 8
  %13 = load ptr, ptr %4, align 8
  call void @_ZNK2cv8FileNodeixEPKc(ptr dead_on_unwind writable sret(%"class.cv::FileNode") align 8 %5, ptr noundef nonnull align 8 dereferenceable(24) %13, ptr noundef @.str)
  %14 = call noundef zeroext i1 @_ZNK2cv8FileNode5emptyEv(ptr noundef nonnull align 8 dereferenceable(24) %5)
  %15 = xor i1 %14, true
  br i1 %15, label %16, label %19

16:                                               ; preds = %2
  %17 = load ptr, ptr %4, align 8
  call void @_ZNK2cv8FileNodeixEPKc(ptr dead_on_unwind writable sret(%"class.cv::FileNode") align 8 %6, ptr noundef nonnull align 8 dereferenceable(24) %17, ptr noundef @.str)
  %18 = getelementptr inbounds %"class.cv::BRISK_Impl", ptr %12, i32 0, i32 1
  call void @_ZN2cvrsIiEEvRKNS_8FileNodeERT_(ptr noundef nonnull align 8 dereferenceable(24) %6, ptr noundef nonnull align 4 dereferenceable(4) %18)
  br label %19

19:                                               ; preds = %16, %2
  %20 = load ptr, ptr %4, align 8
  call void @_ZNK2cv8FileNodeixEPKc(ptr dead_on_unwind writable sret(%"class.cv::FileNode") align 8 %7, ptr noundef nonnull align 8 dereferenceable(24) %20, ptr noundef @.str.1)
  %21 = call noundef zeroext i1 @_ZNK2cv8FileNode5emptyEv(ptr noundef nonnull align 8 dereferenceable(24) %7)
  %22 = xor i1 %21, true
  br i1 %22, label %23, label %26

23:                                               ; preds = %19
  %24 = load ptr, ptr %4, align 8
  call void @_ZNK2cv8FileNodeixEPKc(ptr dead_on_unwind writable sret(%"class.cv::FileNode") align 8 %8, ptr noundef nonnull align 8 dereferenceable(24) %24, ptr noundef @.str.1)
  %25 = getelementptr inbounds %"class.cv::BRISK_Impl", ptr %12, i32 0, i32 2
  call void @_ZN2cvrsIiEEvRKNS_8FileNodeERT_(ptr noundef nonnull align 8 dereferenceable(24) %8, ptr noundef nonnull align 4 dereferenceable(4) %25)
  br label %26

26:                                               ; preds = %23, %19
  %27 = load ptr, ptr %4, align 8
  call void @_ZNK2cv8FileNodeixEPKc(ptr dead_on_unwind writable sret(%"class.cv::FileNode") align 8 %9, ptr noundef nonnull align 8 dereferenceable(24) %27, ptr noundef @.str.2)
  %28 = call noundef zeroext i1 @_ZNK2cv8FileNode5emptyEv(ptr noundef nonnull align 8 dereferenceable(24) %9)
  %29 = xor i1 %28, true
  br i1 %29, label %30, label %33

30:                                               ; preds = %26
  %31 = load ptr, ptr %4, align 8
  call void @_ZNK2cv8FileNodeixEPKc(ptr dead_on_unwind writable sret(%"class.cv::FileNode") align 8 %11, ptr noundef nonnull align 8 dereferenceable(24) %31, ptr noundef @.str.2)
  call void @_ZN2cvrsIfEEvRKNS_8FileNodeERT_(ptr noundef nonnull align 8 dereferenceable(24) %11, ptr noundef nonnull align 4 dereferenceable(4) %10)
  %32 = load float, ptr %10, align 4
  call void @_ZN2cv10BRISK_Impl15setPatternScaleEf(ptr noundef nonnull align 8 dereferenceable(96) %12, float noundef %32)
  br label %33

33:                                               ; preds = %30, %26
  ret void
}