; Function Attrs: mustprogress uwtable
define hidden void @_ZN2cv10BRISK_Impl4readERKNS_8FileNodeE(ptr noundef nonnull align 8 dereferenceable(96) %0, ptr noundef nonnull align 8 dereferenceable(24) %1) unnamed_addr #0 align 2 {
  %3 = alloca %"class.cv::FileNode", align 8
  %4 = alloca %"class.cv::FileNode", align 8
  %5 = alloca %"class.cv::FileNode", align 8
  %6 = alloca %"class.cv::FileNode", align 8
  %7 = alloca %"class.cv::FileNode", align 8
  %8 = alloca float, align 4
  %9 = alloca %"class.cv::FileNode", align 8
  call void @_ZNK2cv8FileNodeixEPKc(ptr dead_on_unwind nonnull writable sret(%"class.cv::FileNode") align 8 %3, ptr noundef nonnull align 8 dereferenceable(24) %1, ptr noundef nonnull @.str)
  %10 = call noundef zeroext i1 @_ZNK2cv8FileNode5emptyEv(ptr noundef nonnull align 8 dereferenceable(24) %3)
  br i1 %10, label %13, label %11

11:                                               ; preds = %2
  call void @_ZNK2cv8FileNodeixEPKc(ptr dead_on_unwind nonnull writable sret(%"class.cv::FileNode") align 8 %4, ptr noundef nonnull align 8 dereferenceable(24) %1, ptr noundef nonnull @.str)
  %12 = getelementptr inbounds i8, ptr %0, i64 8
  call void @_ZN2cv4readERKNS_8FileNodeERii(ptr noundef nonnull align 8 dereferenceable(24) %4, ptr noundef nonnull align 4 dereferenceable(4) %12, i32 noundef 0)
  br label %13

13:                                               ; preds = %11, %2
  call void @_ZNK2cv8FileNodeixEPKc(ptr dead_on_unwind nonnull writable sret(%"class.cv::FileNode") align 8 %5, ptr noundef nonnull align 8 dereferenceable(24) %1, ptr noundef nonnull @.str.1)
  %14 = call noundef zeroext i1 @_ZNK2cv8FileNode5emptyEv(ptr noundef nonnull align 8 dereferenceable(24) %5)
  br i1 %14, label %17, label %15

15:                                               ; preds = %13
  call void @_ZNK2cv8FileNodeixEPKc(ptr dead_on_unwind nonnull writable sret(%"class.cv::FileNode") align 8 %6, ptr noundef nonnull align 8 dereferenceable(24) %1, ptr noundef nonnull @.str.1)
  %16 = getelementptr inbounds i8, ptr %0, i64 12
  call void @_ZN2cv4readERKNS_8FileNodeERii(ptr noundef nonnull align 8 dereferenceable(24) %6, ptr noundef nonnull align 4 dereferenceable(4) %16, i32 noundef 0)
  br label %17

17:                                               ; preds = %15, %13
  call void @_ZNK2cv8FileNodeixEPKc(ptr dead_on_unwind nonnull writable sret(%"class.cv::FileNode") align 8 %7, ptr noundef nonnull align 8 dereferenceable(24) %1, ptr noundef nonnull @.str.2)
  %18 = call noundef zeroext i1 @_ZNK2cv8FileNode5emptyEv(ptr noundef nonnull align 8 dereferenceable(24) %7)
  br i1 %18, label %21, label %19

19:                                               ; preds = %17
  call void @_ZNK2cv8FileNodeixEPKc(ptr dead_on_unwind nonnull writable sret(%"class.cv::FileNode") align 8 %9, ptr noundef nonnull align 8 dereferenceable(24) %1, ptr noundef nonnull @.str.2)
  call void @_ZN2cv4readERKNS_8FileNodeERff(ptr noundef nonnull align 8 dereferenceable(24) %9, ptr noundef nonnull align 4 dereferenceable(4) %8, float noundef 0.000000e+00)
  %20 = load float, ptr %8, align 4
  call void @_ZN2cv10BRISK_Impl15setPatternScaleEf(ptr noundef nonnull align 8 dereferenceable(96) %0, float noundef %20)
  br label %21

21:                                               ; preds = %19, %17
  ret void
}